target datalayout = "e-m:e-p270:32:32-p271:32:32-p272:64:64-i64:64-i128:128-f80:128-n8:16:32:64-S128"
target triple = "x86_64-pc-linux-gnu"

%"class.pybind11::gil_scoped_acquire" = type <{ ptr, i8, i8, [6 x i8] }>
%"class.pybind11::object" = type { %"class.pybind11::handle" }
%"class.pybind11::handle" = type { ptr }
%"class.pybind11::function" = type { %"class.pybind11::object" }
%"struct.std::type_index" = type { ptr }
%"class.pybind11::detail::type_caster.1187" = type { [8 x i8], ptr }
%class.ProtectedB = type <{ ptr, i32, [4 x i8] }>

@.str.52 = private unnamed_addr constant [9 x i8] c"void_foo\00", align 1
@_ZTIZ21test_submodule_class_RN8pybind117module_EE10ProtectedB = internal constant { ptr, ptr } { ptr getelementptr inbounds (ptr, ptr @_ZTVN10__cxxabiv117__class_type_infoE, i64 2), ptr @_ZTSZ21test_submodule_class_RN8pybind117module_EE10ProtectedB }, align 8

; Function Attrs: mustprogress nounwind uwtable
define linkonce_odr hidden noundef nonnull align 8 dereferenceable(8) ptr @_ZN8pybind116detail11type_casterIvvEcvRPvEv(ptr noundef nonnull align 8 dereferenceable(16) %0) #5 comdat align 2 {
  %2 = alloca ptr, align 8
  store ptr %0, ptr %2, align 8, !tbaa !2906
  %3 = load ptr, ptr %2, align 8
  %4 = getelementptr inbounds nuw %"class.pybind11::detail::type_caster.1187", ptr %3, i32 0, i32 1
  ret ptr %4
}

; Function Attrs: inlinehint mustprogress nounwind uwtable
define linkonce_odr hidden void @_ZN8pybind116detail11type_casterIvvEC2Ev(ptr noundef nonnull align 8 dereferenceable(16) %0) unnamed_addr #0 comdat align 2 {
  %2 = alloca ptr, align 8
  store ptr %0, ptr %2, align 8, !tbaa !2906
  %3 = load ptr, ptr %2, align 8
  %4 = getelementptr inbounds nuw %"class.pybind11::detail::type_caster.1187", ptr %3, i32 0, i32 1
  store ptr null, ptr %4, align 8, !tbaa !2908
  ret void
}

; Function Attrs: mustprogress nounwind uwtable
define linkonce_odr hidden noundef nonnull align 8 dereferenceable(8) ptr @_ZN8pybind116detail7cast_opIPvEENS0_11type_casterINS0_14intrinsic_typeIT_E4typeEvE12cast_op_typeINSt20add_rvalue_referenceIS5_E4typeEEEOS8_(ptr noundef nonnull align 8 dereferenceable(16) %0) #5 comdat {
  %2 = alloca ptr, align 8
  store ptr %0, ptr %2, align 8, !tbaa !2906
  %3 = load ptr, ptr %2, align 8, !tbaa !2906
  %4 = call noundef nonnull align 8 dereferenceable(8) ptr @_ZN8pybind116detail11type_casterIvvEcvRPvEv(ptr noundef nonnull align 8 dereferenceable(16) %3)
  ret ptr %4
}

; Function Attrs: mustprogress uwtable
define linkonce_odr hidden ptr @_ZN8pybind116detail9load_typeIPvEENS0_11type_casterINS0_14intrinsic_typeIT_E4typeEvEERKNS_6handleE(ptr noundef nonnull align 8 dereferenceable(8) %0) #4 comdat {
  %2 = alloca %"class.pybind11::detail::type_caster.1187", align 8
  %3 = alloca ptr, align 8
  store ptr %0, ptr %3, align 8, !tbaa !271
  call void @_ZN8pybind116detail11type_casterIvvEC2Ev(ptr noundef nonnull align 8 dereferenceable(16) %2) #24
  %4 = load ptr, ptr %3, align 8, !tbaa !271
  %5 = call noundef nonnull align 8 dereferenceable(16) ptr @_ZN8pybind116detail9load_typeIvvEERNS0_11type_casterIT_T0_EES6_RKNS_6handleE(ptr noundef nonnull align 8 dereferenceable(16) %2, ptr noundef nonnull align 8 dereferenceable(8) %4)
  %6 = getelementptr inbounds i8, ptr %2, i64 8
  %7 = load ptr, ptr %6, align 8
  ret ptr %7
}

; Function Attrs: mustprogress nounwind uwtable
define linkonce_odr hidden void @_ZN8pybind116handleC2Ev(ptr noundef nonnull align 8 dereferenceable(8) %0) unnamed_addr #5 comdat align 2 {
  %2 = alloca ptr, align 8
  store ptr %0, ptr %2, align 8, !tbaa !271
  %3 = load ptr, ptr %2, align 8
  %4 = getelementptr inbounds nuw %"class.pybind11::handle", ptr %3, i32 0, i32 0
  store ptr null, ptr %4, align 8, !tbaa !170
  ret void
}

; Function Attrs: mustprogress uwtable
define linkonce_odr hidden noundef ptr @_ZN8pybind114castIPvTnNSt9enable_ifIXaantsr6detail11is_pyobjectIT_EE5valuentsr6detail22is_same_ignoring_cvrefIS3_P7_objectEE5valueEiE4typeELi0EEES3_RKNS_6handleE(ptr noundef nonnull align 8 dereferenceable(8) %0) #4 comdat {
  %2 = alloca ptr, align 8
  %3 = alloca %"class.pybind11::detail::type_caster.1187", align 8
  store ptr %0, ptr %2, align 8, !tbaa !271
  call void @llvm.lifetime.start.p0(i64 16, ptr %3) #24
  %4 = load ptr, ptr %2, align 8, !tbaa !271
  %5 = call ptr @_ZN8pybind116detail9load_typeIPvEENS0_11type_casterINS0_14intrinsic_typeIT_E4typeEvEERKNS_6handleE(ptr noundef nonnull align 8 dereferenceable(8) %4)
  %6 = getelementptr inbounds i8, ptr %3, i64 8
  store ptr %5, ptr %6, align 8
  %7 = call noundef nonnull align 8 dereferenceable(8) ptr @_ZN8pybind116detail7cast_opIPvEENS0_11type_casterINS0_14intrinsic_typeIT_E4typeEvE12cast_op_typeINSt20add_rvalue_referenceIS5_E4typeEEEOS8_(ptr noundef nonnull align 8 dereferenceable(16) %3)
  %8 = load ptr, ptr %7, align 8, !tbaa !101
  call void @llvm.lifetime.end.p0(i64 16, ptr %3) #24
  ret ptr %8
}

; Function Attrs: mustprogress nounwind uwtable
define linkonce_odr hidden void @_ZN8pybind116objectC2Ev(ptr noundef nonnull align 8 dereferenceable(8) %0) unnamed_addr #5 comdat align 2 {
  %2 = alloca ptr, align 8
  store ptr %0, ptr %2, align 8, !tbaa !269
  %3 = load ptr, ptr %2, align 8
  call void @_ZN8pybind116handleC2Ev(ptr noundef nonnull align 8 dereferenceable(8) %3) #24
  ret void
}

; Function Attrs: mustprogress uwtable
define linkonce_odr hidden noundef ptr @_ZN8pybind114castIPvEENSt9enable_ifIXaantsr6detail11is_pyobjectIT_EE5valuesr6detail10move_neverIS3_EE5valueES3_E4typeEONS_6objectE(ptr noundef nonnull align 8 dereferenceable(8) %0) #4 comdat {
  %2 = alloca ptr, align 8
  store ptr %0, ptr %2, align 8, !tbaa !269
  %3 = load ptr, ptr %2, align 8, !tbaa !269
  %4 = call noundef ptr @_ZN8pybind114castIPvTnNSt9enable_ifIXaantsr6detail11is_pyobjectIT_EE5valuentsr6detail22is_same_ignoring_cvrefIS3_P7_objectEE5valueEiE4typeELi0EEES3_RKNS_6handleE(ptr noundef nonnull align 8 dereferenceable(8) %3)
  ret ptr %4
}

; Function Attrs: mustprogress nounwind uwtable
define linkonce_odr hidden void @_ZN8pybind118functionC2Ev(ptr noundef nonnull align 8 dereferenceable(8) %0) unnamed_addr #5 comdat align 2 {
  %2 = alloca ptr, align 8
  store ptr %0, ptr %2, align 8, !tbaa !2961
  %3 = load ptr, ptr %2, align 8
  call void @_ZN8pybind116objectC2Ev(ptr noundef nonnull align 8 dereferenceable(8) %3) #24
  ret void
}

; Function Attrs: mustprogress nounwind uwtable
define linkonce_odr void @_ZNSt10type_indexC2ERKSt9type_info(ptr noundef nonnull align 8 dereferenceable(8) %0, ptr noundef nonnull align 8 dereferenceable(16) %1) unnamed_addr #5 comdat align 2 {
  %3 = alloca ptr, align 8
  %4 = alloca ptr, align 8
  store ptr %0, ptr %3, align 8, !tbaa !1069
  store ptr %1, ptr %4, align 8, !tbaa !420
  %5 = load ptr, ptr %3, align 8
  %6 = getelementptr inbounds nuw %"struct.std::type_index", ptr %5, i32 0, i32 0
  %7 = load ptr, ptr %4, align 8, !tbaa !420
  store ptr %7, ptr %6, align 8, !tbaa !1071
  ret void
}

; Function Attrs: mustprogress nounwind uwtable
define internal noundef ptr @_ZZ21test_submodule_class_RN8pybind117module_EEN10ProtectedB8void_fooEv(ptr noundef nonnull align 8 dereferenceable(12) %0) unnamed_addr #5 align 2 {
  %2 = alloca ptr, align 8
  store ptr %0, ptr %2, align 8, !tbaa !2925
  %3 = load ptr, ptr %2, align 8
  %4 = getelementptr inbounds nuw %class.ProtectedB, ptr %3, i32 0, i32 1
  ret ptr %4
}

; Function Attrs: mustprogress uwtable
define linkonce_odr hidden noundef ptr @_ZN8pybind116detail9cast_safeIPvEENSt9enable_ifIXsr6detail7none_ofISt17integral_constantIbXaaaaoosr3std12is_referenceIT_EE5valuesr3std10is_pointerIS5_EE5valuentsr3std10is_base_ofINS0_19type_caster_genericENS0_11type_casterINS0_14intrinsic_typeIS5_E4typeEvEEEE5valuentsr3std7is_sameISA_vEE5valueEESt7is_sameINS0_12remove_cvrefIS5_E4typeEP7_objectESt7is_voidIS5_EEE5valueES5_E4typeEONS_6objectE(ptr noundef nonnull align 8 dereferenceable(8) %0) #4 comdat {
  %2 = alloca ptr, align 8
  store ptr %0, ptr %2, align 8, !tbaa !269
  %3 = load ptr, ptr %2, align 8, !tbaa !269
  %4 = call noundef ptr @_ZN8pybind114castIPvEENSt9enable_ifIXaantsr6detail11is_pyobjectIT_EE5valuesr6detail10move_neverIS3_EE5valueES3_E4typeEONS_6objectE(ptr noundef nonnull align 8 dereferenceable(8) %3)
  ret ptr %4
}

; Function Attrs: mustprogress nounwind uwtable
define linkonce_odr hidden noundef zeroext i1 @_ZNK8pybind116handlecvbEv(ptr noundef nonnull align 8 dereferenceable(8) %0) #5 comdat align 2 {
  %2 = alloca ptr, align 8
  store ptr %0, ptr %2, align 8, !tbaa !271
  %3 = load ptr, ptr %2, align 8
  %4 = getelementptr inbounds nuw %"class.pybind11::handle", ptr %3, i32 0, i32 0
  %5 = load ptr, ptr %4, align 8, !tbaa !170
  %6 = icmp ne ptr %5, null
  ret i1 %6
}

; Function Attrs: mustprogress uwtable
define internal void @_ZN8pybind1112get_overrideIZ21test_submodule_class_RNS_7module_EE10ProtectedBEENS_8functionEPKT_PKc(ptr dead_on_unwind noalias writable sret(%"class.pybind11::function") align 8 %0, ptr noundef %1, ptr noundef %2) #4 {
  %4 = alloca ptr, align 8
  %5 = alloca ptr, align 8
  %6 = alloca ptr, align 8
  %7 = alloca ptr, align 8
  %8 = alloca %"struct.std::type_index", align 8
  store ptr %0, ptr %4, align 8
  store ptr %1, ptr %5, align 8, !tbaa !2925
  store ptr %2, ptr %6, align 8, !tbaa !86
  call void @llvm.lifetime.start.p0(i64 8, ptr %7) #24
  call void @llvm.lifetime.start.p0(i64 8, ptr %8) #24
  call void @_ZNSt10type_indexC2ERKSt9type_info(ptr noundef nonnull align 8 dereferenceable(8) %8, ptr noundef nonnull align 8 dereferenceable(16) @_ZTIZ21test_submodule_class_RN8pybind117module_EE10ProtectedB) #24
  %9 = call noundef ptr @_ZN8pybind116detail13get_type_infoERKSt10type_indexb(ptr noundef nonnull align 8 dereferenceable(8) %8, i1 noundef zeroext false)
  call void @llvm.lifetime.end.p0(i64 8, ptr %8) #24
  store ptr %9, ptr %7, align 8, !tbaa !144
  %10 = load ptr, ptr %7, align 8, !tbaa !144
  %11 = icmp ne ptr %10, null
  br i1 %11, label %12, label %16

12:                                               ; preds = %3
  %13 = load ptr, ptr %5, align 8, !tbaa !2925
  %14 = load ptr, ptr %7, align 8, !tbaa !144
  %15 = load ptr, ptr %6, align 8, !tbaa !86
  call void @_ZN8pybind116detail17get_type_overrideEPKvPKNS0_9type_infoEPKc(ptr dead_on_unwind writable sret(%"class.pybind11::function") align 8 %0, ptr noundef %13, ptr noundef %14, ptr noundef %15)
  br label %17

16:                                               ; preds = %3
  call void @llvm.memset.p0.i64(ptr align 8 %0, i8 0, i64 8, i1 false)
  call void @_ZN8pybind118functionC2Ev(ptr noundef nonnull align 8 dereferenceable(8) %0) #24
  br label %17

17:                                               ; preds = %16, %12
  call void @llvm.lifetime.end.p0(i64 8, ptr %7) #24
  ret void
}

; Function Attrs: mustprogress uwtable
define internal noundef ptr @_ZZ21test_submodule_class_RN8pybind117module_EEN11TrampolineB8void_fooEv(ptr noundef nonnull align 8 dereferenceable(12) %0) unnamed_addr #4 align 2 personality ptr @__gxx_personality_v0 {
  %2 = alloca ptr, align 8
  %3 = alloca ptr, align 8
  %4 = alloca %"class.pybind11::gil_scoped_acquire", align 8
  %5 = alloca %"class.pybind11::function", align 8
  %6 = alloca ptr, align 8
  %7 = alloca i32, align 4
  %8 = alloca %"class.pybind11::object", align 8
  %9 = alloca i32, align 4
  store ptr %0, ptr %3, align 8, !tbaa !2956
  %10 = load ptr, ptr %3, align 8
  br label %11

11:                                               ; preds = %1
  br label %12

12:                                               ; preds = %11
  call void @llvm.lifetime.start.p0(i64 16, ptr %4) #24
  call void @_ZN8pybind1118gil_scoped_acquireC2Ev(ptr noundef nonnull align 8 dereferenceable(10) %4)
  call void @llvm.lifetime.start.p0(i64 8, ptr %5) #24
  invoke void @_ZN8pybind1112get_overrideIZ21test_submodule_class_RNS_7module_EE10ProtectedBEENS_8functionEPKT_PKc(ptr dead_on_unwind writable sret(%"class.pybind11::function") align 8 %5, ptr noundef %10, ptr noundef @.str.52)
          to label %13 unwind label %19

13:                                               ; preds = %12
  %14 = call noundef zeroext i1 @_ZNK8pybind116handlecvbEv(ptr noundef nonnull align 8 dereferenceable(8) %5)
  br i1 %14, label %15, label %32

15:                                               ; preds = %13
  call void @llvm.lifetime.start.p0(i64 8, ptr %8) #24
  invoke void @_ZNK8pybind116detail10object_apiINS_6handleEEclILNS_19return_value_policyE1EJEEENS_6objectEDpOT0_(ptr dead_on_unwind writable sret(%"class.pybind11::object") align 8 %8, ptr noundef nonnull align 1 dereferenceable(1) %5)
          to label %16 unwind label %23

16:                                               ; preds = %15
  %17 = invoke noundef ptr @_ZN8pybind116detail9cast_safeIPvEENSt9enable_ifIXsr6detail7none_ofISt17integral_constantIbXaaaaoosr3std12is_referenceIT_EE5valuesr3std10is_pointerIS5_EE5valuentsr3std10is_base_ofINS0_19type_caster_genericENS0_11type_casterINS0_14intrinsic_typeIS5_E4typeEvEEEE5valuentsr3std7is_sameISA_vEE5valueEESt7is_sameINS0_12remove_cvrefIS5_E4typeEP7_objectESt7is_voidIS5_EEE5valueES5_E4typeEONS_6objectE(ptr noundef nonnull align 8 dereferenceable(8) %8)
          to label %18 unwind label %27

18:                                               ; preds = %16
  store ptr %17, ptr %2, align 8
  store i32 1, ptr %9, align 4
  call void @_ZN8pybind116objectD2Ev(ptr noundef nonnull align 8 dereferenceable(8) %8) #24
  call void @llvm.lifetime.end.p0(i64 8, ptr %8) #24
  br label %33

19:                                               ; preds = %12
  %20 = landingpad { ptr, i32 }
          cleanup
  %21 = extractvalue { ptr, i32 } %20, 0
  store ptr %21, ptr %6, align 8
  %22 = extractvalue { ptr, i32 } %20, 1
  store i32 %22, ptr %7, align 4
  br label %38

23:                                               ; preds = %15
  %24 = landingpad { ptr, i32 }
          cleanup
  %25 = extractvalue { ptr, i32 } %24, 0
  store ptr %25, ptr %6, align 8
  %26 = extractvalue { ptr, i32 } %24, 1
  store i32 %26, ptr %7, align 4
  br label %31

27:                                               ; preds = %16
  %28 = landingpad { ptr, i32 }
          cleanup
  %29 = extractvalue { ptr, i32 } %28, 0
  store ptr %29, ptr %6, align 8
  %30 = extractvalue { ptr, i32 } %28, 1
  store i32 %30, ptr %7, align 4
  call void @_ZN8pybind116objectD2Ev(ptr noundef nonnull align 8 dereferenceable(8) %8) #24
  br label %31

31:                                               ; preds = %27, %23
  call void @llvm.lifetime.end.p0(i64 8, ptr %8) #24
  call void @_ZN8pybind116objectD2Ev(ptr noundef nonnull align 8 dereferenceable(8) %5) #24
  br label %38

32:                                               ; preds = %13
  store i32 0, ptr %9, align 4
  br label %33

33:                                               ; preds = %32, %18
  call void @_ZN8pybind116objectD2Ev(ptr noundef nonnull align 8 dereferenceable(8) %5) #24
  call void @llvm.lifetime.end.p0(i64 8, ptr %5) #24
  call void @_ZN8pybind1118gil_scoped_acquireD2Ev(ptr noundef nonnull align 8 dereferenceable(10) %4) #24
  call void @llvm.lifetime.end.p0(i64 16, ptr %4) #24
  %34 = load i32, ptr %9, align 4
  switch i32 %34, label %47 [
    i32 0, label %35
    i32 1, label %40
  ]

35:                                               ; preds = %33
  br label %36

36:                                               ; preds = %35
  %37 = call noundef ptr @_ZZ21test_submodule_class_RN8pybind117module_EEN10ProtectedB8void_fooEv(ptr noundef nonnull align 8 dereferenceable(12) %10)
  store ptr %37, ptr %2, align 8
  br label %40

38:                                               ; preds = %31, %19
  call void @llvm.lifetime.end.p0(i64 8, ptr %5) #24
  call void @_ZN8pybind1118gil_scoped_acquireD2Ev(ptr noundef nonnull align 8 dereferenceable(10) %4) #24
  call void @llvm.lifetime.end.p0(i64 16, ptr %4) #24
  br label %42

39:                                               ; No predecessors!
  unreachable

40:                                               ; preds = %36, %33
  %41 = load ptr, ptr %2, align 8
  ret ptr %41

42:                                               ; preds = %38
  %43 = load ptr, ptr %6, align 8
  %44 = load i32, ptr %7, align 4
  %45 = insertvalue { ptr, i32 } poison, ptr %43, 0
  %46 = insertvalue { ptr, i32 } %45, i32 %44, 1
  resume { ptr, i32 } %46

47:                                               ; preds = %33
  unreachable
}