; Function Attrs: mustprogress uwtable
define internal noundef ptr @_ZZ21test_submodule_class_RN8pybind117module_EEN11TrampolineB8void_fooEv(ptr noundef nonnull align 8 dereferenceable(12) %0) unnamed_addr #5 align 2 personality ptr @__gxx_personality_v0 {
  %2 = alloca %"class.pybind11::detail::type_caster.1187", align 8
  %3 = alloca %"struct.std::type_index", align 8
  %4 = alloca %"class.pybind11::gil_scoped_acquire", align 8
  %5 = alloca %"class.pybind11::function", align 8
  %6 = alloca %"class.pybind11::object", align 8
  call void @llvm.lifetime.start.p0(i64 16, ptr nonnull %4) #35
  call void @_ZN8pybind1118gil_scoped_acquireC2Ev(ptr noundef nonnull align 8 dereferenceable(10) %4)
  call void @llvm.lifetime.start.p0(i64 8, ptr nonnull %5) #35
  call void @llvm.lifetime.start.p0(i64 8, ptr nonnull %3) #35, !noalias !2918
  store ptr @_ZTIZ21test_submodule_class_RN8pybind117module_EE10ProtectedB, ptr %3, align 8, !tbaa !564, !noalias !2918
  %7 = invoke noundef ptr @_ZN8pybind116detail13get_type_infoERKSt10type_indexb(ptr noundef nonnull align 8 dereferenceable(8) %3, i1 noundef zeroext false)
          to label %.noexc unwind label %23

.noexc:                                           ; preds = %1
  call void @llvm.lifetime.end.p0(i64 8, ptr nonnull %3) #35, !noalias !2918
  %.not.i = icmp eq ptr %7, null
  br i1 %.not.i, label %_ZN8pybind1112get_overrideIZ21test_submodule_class_RNS_7module_EE10ProtectedBEENS_8functionEPKT_PKc.exit.thread, label %8

8:                                                ; preds = %.noexc
  invoke void @_ZN8pybind116detail17get_type_overrideEPKvPKNS0_9type_infoEPKc(ptr dead_on_unwind nonnull writable sret(%"class.pybind11::function") align 8 %5, ptr noundef nonnull %0, ptr noundef nonnull %7, ptr noundef nonnull @.str.52)
          to label %_ZN8pybind1112get_overrideIZ21test_submodule_class_RNS_7module_EE10ProtectedBEENS_8functionEPKT_PKc.exit unwind label %23

_ZN8pybind1112get_overrideIZ21test_submodule_class_RNS_7module_EE10ProtectedBEENS_8functionEPKT_PKc.exit: ; preds = %8
  %.pr = load ptr, ptr %5, align 8, !tbaa !80
  %.not = icmp eq ptr %.pr, null
  br i1 %.not, label %_ZN8pybind1112get_overrideIZ21test_submodule_class_RNS_7module_EE10ProtectedBEENS_8functionEPKT_PKc.exit.thread, label %9

9:                                                ; preds = %_ZN8pybind1112get_overrideIZ21test_submodule_class_RNS_7module_EE10ProtectedBEENS_8functionEPKT_PKc.exit
  call void @llvm.lifetime.start.p0(i64 8, ptr nonnull %6) #35
  invoke void @_ZNK8pybind116detail10object_apiINS_6handleEEclILNS_19return_value_policyE1EJEEENS_6objectEDpOT0_(ptr dead_on_unwind nonnull writable sret(%"class.pybind11::object") align 8 %6, ptr noundef nonnull align 1 dereferenceable(1) %5)
          to label %10 unwind label %25

10:                                               ; preds = %9
  call void @llvm.lifetime.start.p0(i64 16, ptr nonnull %2)
  %11 = getelementptr inbounds nuw i8, ptr %2, i64 8
  store ptr null, ptr %11, align 8, !tbaa !2900
  %12 = invoke noundef nonnull align 8 dereferenceable(16) ptr @_ZN8pybind116detail9load_typeIvvEERNS0_11type_casterIT_T0_EES6_RKNS_6handleE(ptr noundef nonnull align 8 dereferenceable(16) %2, ptr noundef nonnull align 8 dereferenceable(8) %6)
          to label %13 unwind label %27

13:                                               ; preds = %10
  %14 = load ptr, ptr %11, align 8
  call void @llvm.lifetime.end.p0(i64 16, ptr nonnull %2)
  %15 = load ptr, ptr %6, align 8, !tbaa !80
  %.not.i.i.i = icmp eq ptr %15, null
  br i1 %.not.i.i.i, label %30, label %16

16:                                               ; preds = %13
  %17 = load i64, ptr %15, align 8, !tbaa !81
  %18 = add nsw i64 %17, -1
  store i64 %18, ptr %15, align 8, !tbaa !81
  %.not.i.i.i.i = icmp eq i64 %18, 0
  br i1 %.not.i.i.i.i, label %19, label %30

19:                                               ; preds = %16
  invoke void @_Py_Dealloc(ptr noundef nonnull %15)
          to label %30 unwind label %20

20:                                               ; preds = %19
  %21 = landingpad { ptr, i32 }
          catch ptr null
  %22 = extractvalue { ptr, i32 } %21, 0
  call void @__clang_call_terminate(ptr %22) #36
  unreachable

23:                                               ; preds = %8, %1
  %24 = landingpad { ptr, i32 }
          cleanup
  br label %39

25:                                               ; preds = %9
  %26 = landingpad { ptr, i32 }
          cleanup
  br label %29

27:                                               ; preds = %10
  %28 = landingpad { ptr, i32 }
          cleanup
  call void @_ZN8pybind116objectD2Ev(ptr noundef nonnull align 8 dereferenceable(8) %6) #35
  br label %29

29:                                               ; preds = %27, %25
  %.pn = phi { ptr, i32 } [ %28, %27 ], [ %26, %25 ]
  call void @llvm.lifetime.end.p0(i64 8, ptr nonnull %6) #35
  call void @_ZN8pybind116objectD2Ev(ptr noundef nonnull align 8 dereferenceable(8) %5) #35
  br label %39

30:                                               ; preds = %19, %16, %13
  call void @llvm.lifetime.end.p0(i64 8, ptr nonnull %6) #35
  %.pr16 = load ptr, ptr %5, align 8, !tbaa !80
  %.not.i.i.i13 = icmp eq ptr %.pr16, null
  br i1 %.not.i.i.i13, label %_ZN8pybind116objectD2Ev.exit15.thread, label %31

31:                                               ; preds = %30
  %32 = load i64, ptr %.pr16, align 8, !tbaa !81
  %33 = add nsw i64 %32, -1
  store i64 %33, ptr %.pr16, align 8, !tbaa !81
  %.not.i.i.i.i14 = icmp eq i64 %33, 0
  br i1 %.not.i.i.i.i14, label %34, label %_ZN8pybind116objectD2Ev.exit15.thread

34:                                               ; preds = %31
  invoke void @_Py_Dealloc(ptr noundef nonnull %.pr16)
          to label %_ZN8pybind116objectD2Ev.exit15.thread unwind label %35

35:                                               ; preds = %34
  %36 = landingpad { ptr, i32 }
          catch ptr null
  %37 = extractvalue { ptr, i32 } %36, 0
  call void @__clang_call_terminate(ptr %37) #36
  unreachable

_ZN8pybind116objectD2Ev.exit15.thread:            ; preds = %30, %31, %34
  call void @llvm.lifetime.end.p0(i64 8, ptr nonnull %5) #35
  call void @_ZN8pybind1118gil_scoped_acquireD2Ev(ptr noundef nonnull align 8 dereferenceable(10) %4) #35
  call void @llvm.lifetime.end.p0(i64 16, ptr nonnull %4) #35
  br label %40

_ZN8pybind1112get_overrideIZ21test_submodule_class_RNS_7module_EE10ProtectedBEENS_8functionEPKT_PKc.exit.thread: ; preds = %.noexc, %_ZN8pybind1112get_overrideIZ21test_submodule_class_RNS_7module_EE10ProtectedBEENS_8functionEPKT_PKc.exit
  call void @llvm.lifetime.end.p0(i64 8, ptr nonnull %5) #35
  call void @_ZN8pybind1118gil_scoped_acquireD2Ev(ptr noundef nonnull align 8 dereferenceable(10) %4) #35
  call void @llvm.lifetime.end.p0(i64 16, ptr nonnull %4) #35
  %38 = getelementptr inbounds nuw i8, ptr %0, i64 8
  br label %40

39:                                               ; preds = %29, %23
  %.pn.pn = phi { ptr, i32 } [ %.pn, %29 ], [ %24, %23 ]
  call void @llvm.lifetime.end.p0(i64 8, ptr nonnull %5) #35
  call void @_ZN8pybind1118gil_scoped_acquireD2Ev(ptr noundef nonnull align 8 dereferenceable(10) %4) #35
  call void @llvm.lifetime.end.p0(i64 16, ptr nonnull %4) #35
  resume { ptr, i32 } %.pn.pn

40:                                               ; preds = %_ZN8pybind116objectD2Ev.exit15.thread, %_ZN8pybind1112get_overrideIZ21test_submodule_class_RNS_7module_EE10ProtectedBEENS_8functionEPKT_PKc.exit.thread
  %.18 = phi ptr [ %38, %_ZN8pybind1112get_overrideIZ21test_submodule_class_RNS_7module_EE10ProtectedBEENS_8functionEPKT_PKc.exit.thread ], [ %14, %_ZN8pybind116objectD2Ev.exit15.thread ]
  ret ptr %.18
}